target datalayout = "e-m:e-p270:32:32-p271:32:32-p272:64:64-i64:64-i128:128-f80:128-n8:16:32:64-S128"
target triple = "x86_64-pc-linux-gnu"

%"struct.cv::utils::trace::details::Region::LocationStaticStorage" = type { ptr, ptr, ptr, i32, i32 }
%"class.cv::utils::trace::details::Region" = type <{ ptr, i32, [4 x i8] }>
%"class.std::__cxx11::basic_string" = type { %"struct.std::__cxx11::basic_string<char>::_Alloc_hider", i64, %union.anon }
%"struct.std::__cxx11::basic_string<char>::_Alloc_hider" = type { ptr }
%union.anon = type { i64, [8 x i8] }
%"class.std::allocator" = type { i8 }
%"class.cv::Mat" = type { i32, i32, i32, i32, ptr, ptr, ptr, ptr, ptr, ptr, %"struct.cv::MatSize", %"struct.cv::MatStep" }
%"struct.cv::MatSize" = type { ptr }
%"struct.cv::MatStep" = type { ptr, [2 x i64] }
%"class.cv::NAryMatIterator" = type { ptr, ptr, ptr, i32, i64, i64, i32, i64 }
%"class.cv::_InputArray" = type { i32, ptr, %"class.cv::Size_" }
%"class.cv::Size_" = type { i32, i32 }

@_ZZN2cv12countNonZeroERKNS_11_InputArrayEE25__cv_trace_location_fn121 = internal constant %"struct.cv::utils::trace::details::Region::LocationStaticStorage" { ptr @_ZZN2cv12countNonZeroERKNS_11_InputArrayEE31__cv_trace_location_extra_fn121, ptr @.str, ptr @.str.1, i32 121, i32 1 }, align 8
@.str.1 = private unnamed_addr constant [136 x i8] c"generated/home/dtcxzyw/WorkSpace/Projects/compilers/llvm-opt-benchmark/bench/opencv/opencv/modules/core/src/count_non_zero.dispatch.cpp\00", align 1
@.str.2 = private unnamed_addr constant [8 x i8] c"cn == 1\00", align 1
@__func__._ZN2cv12countNonZeroERKNS_11_InputArrayE = private unnamed_addr constant [13 x i8] c"countNonZero\00", align 1
@.str.3 = private unnamed_addr constant [10 x i8] c"func != 0\00", align 1
@_ZZN2cvL18getCountNonZeroTabEiE24__cv_trace_location_fn17 = internal constant %"struct.cv::utils::trace::details::Region::LocationStaticStorage" { ptr @_ZZN2cvL18getCountNonZeroTabEiE30__cv_trace_location_extra_fn17, ptr @.str.5, ptr @.str.1, i32 17, i32 1 }, align 8

; Function Attrs: mustprogress nounwind uwtable
define hidden noundef ptr @_ZN2cv12cpu_baseline18getCountNonZeroTabEi(i32 noundef %0) #0 {
  %2 = alloca i32, align 4
  store i32 %0, ptr %2, align 4
  %3 = load i32, ptr %2, align 4
  %4 = sext i32 %3 to i64
  %5 = getelementptr inbounds [8 x ptr], ptr @_ZZN2cv12cpu_baseline18getCountNonZeroTabEiE15countNonZeroTab, i64 0, i64 %4
  %6 = load ptr, ptr %5, align 8
  ret ptr %6
}

; Function Attrs: mustprogress uwtable
define internal noundef ptr @_ZN2cvL18getCountNonZeroTabEi(i32 noundef %0) #1 {
  %2 = alloca i32, align 4
  %3 = alloca %"class.cv::utils::trace::details::Region", align 8
  store i32 %0, ptr %2, align 4
  call void @_ZN2cv5utils5trace7details6RegionC1ERKNS3_21LocationStaticStorageE(ptr noundef nonnull align 8 dereferenceable(12) %3, ptr noundef nonnull align 8 dereferenceable(32) @_ZZN2cvL18getCountNonZeroTabEiE24__cv_trace_location_fn17)
  %4 = load i32, ptr %2, align 4
  %5 = call noundef ptr @_ZN2cv12cpu_baseline18getCountNonZeroTabEi(i32 noundef %4)
  call void @_ZN2cv5utils5trace7details6RegionD2Ev(ptr noundef nonnull align 8 dereferenceable(12) %3) #12
  ret ptr %5
}

; Function Attrs: mustprogress nounwind uwtable
define linkonce_odr hidden noundef i32 @_ZNK2cv3Mat5depthEv(ptr noundef nonnull align 8 dereferenceable(96) %0) #0 comdat align 2 {
  %2 = alloca ptr, align 8
  store ptr %0, ptr %2, align 8
  %3 = load ptr, ptr %2, align 8
  %4 = getelementptr inbounds %"class.cv::Mat", ptr %3, i32 0, i32 0
  %5 = load i32, ptr %4, align 8
  %6 = and i32 %5, 7
  ret i32 %6
}

; Function Attrs: mustprogress uwtable
define linkonce_odr hidden void @_ZNK2cv11_InputArray6getMatEi(ptr dead_on_unwind noalias writable sret(%"class.cv::Mat") align 8 %0, ptr noundef nonnull align 8 dereferenceable(24) %1, i32 noundef %2) #1 comdat align 2 {
  %4 = alloca ptr, align 8
  %5 = alloca ptr, align 8
  %6 = alloca i32, align 4
  store ptr %0, ptr %4, align 8
  store ptr %1, ptr %5, align 8
  store i32 %2, ptr %6, align 4
  %7 = load ptr, ptr %5, align 8
  %8 = call noundef i32 @_ZNK2cv11_InputArray4kindEv(ptr noundef nonnull align 8 dereferenceable(24) %7)
  %9 = icmp eq i32 %8, 65536
  br i1 %9, label %10, label %16

10:                                               ; preds = %3
  %11 = load i32, ptr %6, align 4
  %12 = icmp slt i32 %11, 0
  br i1 %12, label %13, label %16

13:                                               ; preds = %10
  %14 = getelementptr inbounds %"class.cv::_InputArray", ptr %7, i32 0, i32 1
  %15 = load ptr, ptr %14, align 8
  call void @_ZN2cv3MatC1ERKS0_(ptr noundef nonnull align 8 dereferenceable(96) %0, ptr noundef nonnull align 8 dereferenceable(96) %15)
  br label %18

16:                                               ; preds = %10, %3
  %17 = load i32, ptr %6, align 4
  call void @_ZNK2cv11_InputArray7getMat_Ei(ptr dead_on_unwind writable sret(%"class.cv::Mat") align 8 %0, ptr noundef nonnull align 8 dereferenceable(24) %7, i32 noundef %17)
  br label %18

18:                                               ; preds = %16, %13
  ret void
}

; Function Attrs: mustprogress uwtable
define noundef i32 @_ZN2cv12countNonZeroERKNS_11_InputArrayE(ptr noundef nonnull align 8 dereferenceable(24) %0) #1 personality ptr @__gxx_personality_v0 {
  %2 = alloca ptr, align 8
  %3 = alloca %"class.cv::utils::trace::details::Region", align 8
  %4 = alloca i32, align 4
  %5 = alloca ptr, align 8
  %6 = alloca i32, align 4
  %7 = alloca i32, align 4
  %8 = alloca %"class.std::__cxx11::basic_string", align 8
  %9 = alloca %"class.std::allocator", align 1
  %10 = alloca %"class.cv::Mat", align 8
  %11 = alloca ptr, align 8
  %12 = alloca %"class.std::__cxx11::basic_string", align 8
  %13 = alloca %"class.std::allocator", align 1
  %14 = alloca [2 x ptr], align 16
  %15 = alloca [1 x ptr], align 8
  %16 = alloca %"class.cv::NAryMatIterator", align 8
  %17 = alloca i32, align 4
  %18 = alloca i32, align 4
  %19 = alloca i64, align 8
  store ptr %0, ptr %2, align 8
  call void @_ZN2cv5utils5trace7details6RegionC1ERKNS3_21LocationStaticStorageE(ptr noundef nonnull align 8 dereferenceable(12) %3, ptr noundef nonnull align 8 dereferenceable(32) @_ZZN2cv12countNonZeroERKNS_11_InputArrayEE25__cv_trace_location_fn121)
  %20 = load ptr, ptr %2, align 8
  %21 = invoke noundef i32 @_ZNK2cv11_InputArray4typeEi(ptr noundef nonnull align 8 dereferenceable(24) %20, i32 noundef -1)
          to label %22 unwind label %31

22:                                               ; preds = %1
  store i32 %21, ptr %4, align 4
  %23 = load i32, ptr %4, align 4
  %24 = and i32 %23, 4088
  %25 = ashr i32 %24, 3
  %26 = add nsw i32 %25, 1
  store i32 %26, ptr %7, align 4
  br label %27

27:                                               ; preds = %22
  %28 = load i32, ptr %7, align 4
  %29 = icmp eq i32 %28, 1
  br i1 %29, label %30, label %35

30:                                               ; preds = %27
  br label %47

31:                                               ; preds = %49, %1
  %32 = landingpad { ptr, i32 }
          cleanup
  %33 = extractvalue { ptr, i32 } %32, 0
  store ptr %33, ptr %5, align 8
  %34 = extractvalue { ptr, i32 } %32, 1
  store i32 %34, ptr %6, align 4
  br label %108

35:                                               ; preds = %27
  call void @_ZNSaIcEC1Ev(ptr noundef nonnull align 1 dereferenceable(1) %9) #12
  invoke void @_ZNSt7__cxx1112basic_stringIcSt11char_traitsIcESaIcEEC1EPKcRKS3_(ptr noundef nonnull align 8 dereferenceable(32) %8, ptr noundef @.str.2, ptr noundef nonnull align 1 dereferenceable(1) %9)
          to label %36 unwind label %38

36:                                               ; preds = %35
  invoke void @_ZN2cv5errorEiRKNSt7__cxx1112basic_stringIcSt11char_traitsIcESaIcEEEPKcS9_i(i32 noundef -215, ptr noundef nonnull align 8 dereferenceable(32) %8, ptr noundef @__func__._ZN2cv12countNonZeroERKNS_11_InputArrayE, ptr noundef @.str.1, i32 noundef 124) #13
          to label %37 unwind label %42

37:                                               ; preds = %36
  unreachable

38:                                               ; preds = %35
  %39 = landingpad { ptr, i32 }
          cleanup
  %40 = extractvalue { ptr, i32 } %39, 0
  store ptr %40, ptr %5, align 8
  %41 = extractvalue { ptr, i32 } %39, 1
  store i32 %41, ptr %6, align 4
  br label %46

42:                                               ; preds = %36
  %43 = landingpad { ptr, i32 }
          cleanup
  %44 = extractvalue { ptr, i32 } %43, 0
  store ptr %44, ptr %5, align 8
  %45 = extractvalue { ptr, i32 } %43, 1
  store i32 %45, ptr %6, align 4
  call void @_ZNSt7__cxx1112basic_stringIcSt11char_traitsIcESaIcEED1Ev(ptr noundef nonnull align 8 dereferenceable(32) %8) #12
  br label %46

46:                                               ; preds = %42, %38
  call void @_ZNSaIcED1Ev(ptr noundef nonnull align 1 dereferenceable(1) %9) #12
  br label %108

47:                                               ; preds = %30
  br label %48

48:                                               ; preds = %47
  br label %49

49:                                               ; preds = %48
  %50 = load ptr, ptr %2, align 8
  invoke void @_ZNK2cv11_InputArray6getMatEi(ptr dead_on_unwind writable sret(%"class.cv::Mat") align 8 %10, ptr noundef nonnull align 8 dereferenceable(24) %50, i32 noundef -1)
          to label %51 unwind label %31

51:                                               ; preds = %49
  %52 = invoke noundef i32 @_ZNK2cv3Mat5depthEv(ptr noundef nonnull align 8 dereferenceable(96) %10)
          to label %53 unwind label %60

53:                                               ; preds = %51
  %54 = invoke noundef ptr @_ZN2cvL18getCountNonZeroTabEi(i32 noundef %52)
          to label %55 unwind label %60

55:                                               ; preds = %53
  store ptr %54, ptr %11, align 8
  br label %56

56:                                               ; preds = %55
  %57 = load ptr, ptr %11, align 8
  %58 = icmp ne ptr %57, null
  br i1 %58, label %59, label %64

59:                                               ; preds = %56
  br label %76

60:                                               ; preds = %100, %91, %78, %53, %51
  %61 = landingpad { ptr, i32 }
          cleanup
  %62 = extractvalue { ptr, i32 } %61, 0
  store ptr %62, ptr %5, align 8
  %63 = extractvalue { ptr, i32 } %61, 1
  store i32 %63, ptr %6, align 4
  br label %107

64:                                               ; preds = %56
  call void @_ZNSaIcEC1Ev(ptr noundef nonnull align 1 dereferenceable(1) %13) #12
  invoke void @_ZNSt7__cxx1112basic_stringIcSt11char_traitsIcESaIcEEC1EPKcRKS3_(ptr noundef nonnull align 8 dereferenceable(32) %12, ptr noundef @.str.3, ptr noundef nonnull align 1 dereferenceable(1) %13)
          to label %65 unwind label %67

65:                                               ; preds = %64
  invoke void @_ZN2cv5errorEiRKNSt7__cxx1112basic_stringIcSt11char_traitsIcESaIcEEEPKcS9_i(i32 noundef -215, ptr noundef nonnull align 8 dereferenceable(32) %12, ptr noundef @__func__._ZN2cv12countNonZeroERKNS_11_InputArrayE, ptr noundef @.str.1, i32 noundef 140) #13
          to label %66 unwind label %71

66:                                               ; preds = %65
  unreachable

67:                                               ; preds = %64
  %68 = landingpad { ptr, i32 }
          cleanup
  %69 = extractvalue { ptr, i32 } %68, 0
  store ptr %69, ptr %5, align 8
  %70 = extractvalue { ptr, i32 } %68, 1
  store i32 %70, ptr %6, align 4
  br label %75

71:                                               ; preds = %65
  %72 = landingpad { ptr, i32 }
          cleanup
  %73 = extractvalue { ptr, i32 } %72, 0
  store ptr %73, ptr %5, align 8
  %74 = extractvalue { ptr, i32 } %72, 1
  store i32 %74, ptr %6, align 4
  call void @_ZNSt7__cxx1112basic_stringIcSt11char_traitsIcESaIcEED1Ev(ptr noundef nonnull align 8 dereferenceable(32) %12) #12
  br label %75

75:                                               ; preds = %71, %67
  call void @_ZNSaIcED1Ev(ptr noundef nonnull align 1 dereferenceable(1) %13) #12
  br label %107

76:                                               ; preds = %59
  br label %77

77:                                               ; preds = %76
  br label %78

78:                                               ; preds = %77
  store ptr %10, ptr %14, align 8
  %79 = getelementptr inbounds ptr, ptr %14, i64 1
  store ptr null, ptr %79, align 8
  call void @llvm.memset.p0.i64(ptr align 8 %15, i8 0, i64 8, i1 false)
  %80 = getelementptr inbounds [2 x ptr], ptr %14, i64 0, i64 0
  %81 = getelementptr inbounds [1 x ptr], ptr %15, i64 0, i64 0
  invoke void @_ZN2cv15NAryMatIteratorC1EPPKNS_3MatEPPhi(ptr noundef nonnull align 8 dereferenceable(64) %16, ptr noundef %80, ptr noundef %81, i32 noundef -1)
          to label %82 unwind label %60

82:                                               ; preds = %78
  %83 = getelementptr inbounds %"class.cv::NAryMatIterator", ptr %16, i32 0, i32 5
  %84 = load i64, ptr %83, align 8
  %85 = trunc i64 %84 to i32
  store i32 %85, ptr %17, align 4
  store i32 0, ptr %18, align 4
  store i64 0, ptr %19, align 8
  br label %86

86:                                               ; preds = %104, %82
  %87 = load i64, ptr %19, align 8
  %88 = getelementptr inbounds %"class.cv::NAryMatIterator", ptr %16, i32 0, i32 4
  %89 = load i64, ptr %88, align 8
  %90 = icmp ult i64 %87, %89
  br i1 %90, label %91, label %105

91:                                               ; preds = %86
  %92 = load ptr, ptr %11, align 8
  %93 = getelementptr inbounds [1 x ptr], ptr %15, i64 0, i64 0
  %94 = load ptr, ptr %93, align 8
  %95 = load i32, ptr %17, align 4
  %96 = invoke noundef i32 %92(ptr noundef %94, i32 noundef %95)
          to label %97 unwind label %60

97:                                               ; preds = %91
  %98 = load i32, ptr %18, align 4
  %99 = add nsw i32 %98, %96
  store i32 %99, ptr %18, align 4
  br label %100

100:                                              ; preds = %97
  %101 = load i64, ptr %19, align 8
  %102 = add i64 %101, 1
  store i64 %102, ptr %19, align 8
  %103 = invoke noundef nonnull align 8 dereferenceable(64) ptr @_ZN2cv15NAryMatIteratorppEv(ptr noundef nonnull align 8 dereferenceable(64) %16)
          to label %104 unwind label %60

104:                                              ; preds = %100
  br label %86, !llvm.loop !6

105:                                              ; preds = %86
  %106 = load i32, ptr %18, align 4
  call void @_ZN2cv3MatD1Ev(ptr noundef nonnull align 8 dereferenceable(96) %10) #12
  call void @_ZN2cv5utils5trace7details6RegionD2Ev(ptr noundef nonnull align 8 dereferenceable(12) %3) #12
  ret i32 %106

107:                                              ; preds = %75, %60
  call void @_ZN2cv3MatD1Ev(ptr noundef nonnull align 8 dereferenceable(96) %10) #12
  br label %108

108:                                              ; preds = %107, %46, %31
  call void @_ZN2cv5utils5trace7details6RegionD2Ev(ptr noundef nonnull align 8 dereferenceable(12) %3) #12
  br label %109

109:                                              ; preds = %108
  %110 = load ptr, ptr %5, align 8
  %111 = load i32, ptr %6, align 4
  %112 = insertvalue { ptr, i32 } poison, ptr %110, 0
  %113 = insertvalue { ptr, i32 } %112, i32 %111, 1
  resume { ptr, i32 } %113
}