; Function Attrs: mustprogress uwtable
define noundef i32 @_ZN2cv12countNonZeroERKNS_11_InputArrayE(ptr noundef nonnull align 8 dereferenceable(24) %0) local_unnamed_addr #2 personality ptr @__gxx_personality_v0 {
  %2 = alloca %"class.cv::utils::trace::details::Region", align 8
  %3 = alloca %"class.cv::utils::trace::details::Region", align 8
  %4 = alloca %"class.std::__cxx11::basic_string", align 8
  %5 = alloca %"class.std::allocator", align 1
  %6 = alloca %"class.cv::Mat", align 8
  %7 = alloca %"class.std::__cxx11::basic_string", align 8
  %8 = alloca %"class.std::allocator", align 1
  %9 = alloca [2 x ptr], align 16
  %10 = alloca [1 x ptr], align 8
  %11 = alloca %"class.cv::NAryMatIterator", align 8
  call void @_ZN2cv5utils5trace7details6RegionC1ERKNS3_21LocationStaticStorageE(ptr noundef nonnull align 8 dereferenceable(12) %3, ptr noundef nonnull align 8 dereferenceable(32) @_ZZN2cv12countNonZeroERKNS_11_InputArrayEE25__cv_trace_location_fn121)
  %12 = invoke noundef i32 @_ZNK2cv11_InputArray4typeEi(ptr noundef nonnull align 8 dereferenceable(24) %0, i32 noundef -1)
          to label %13 unwind label %16

13:                                               ; preds = %1
  %14 = and i32 %12, 4088
  %15 = icmp eq i32 %14, 0
  br i1 %15, label %26, label %18

16:                                               ; preds = %32, %29, %26, %1
  %17 = landingpad { ptr, i32 }
          cleanup
  br label %78

18:                                               ; preds = %13
  call void @_ZNSaIcEC1Ev(ptr noundef nonnull align 1 dereferenceable(1) %5) #15
  invoke void @_ZNSt7__cxx1112basic_stringIcSt11char_traitsIcESaIcEEC1EPKcRKS3_(ptr noundef nonnull align 8 dereferenceable(32) %4, ptr noundef nonnull @.str.2, ptr noundef nonnull align 1 dereferenceable(1) %5)
          to label %19 unwind label %21

19:                                               ; preds = %18
  invoke void @_ZN2cv5errorEiRKNSt7__cxx1112basic_stringIcSt11char_traitsIcESaIcEEEPKcS9_i(i32 noundef -215, ptr noundef nonnull align 8 dereferenceable(32) %4, ptr noundef nonnull @__func__._ZN2cv12countNonZeroERKNS_11_InputArrayE, ptr noundef nonnull @.str.1, i32 noundef 124) #16
          to label %20 unwind label %23

20:                                               ; preds = %19
  unreachable

21:                                               ; preds = %18
  %22 = landingpad { ptr, i32 }
          cleanup
  br label %25

23:                                               ; preds = %19
  %24 = landingpad { ptr, i32 }
          cleanup
  call void @_ZNSt7__cxx1112basic_stringIcSt11char_traitsIcESaIcEED1Ev(ptr noundef nonnull align 8 dereferenceable(32) %4) #15
  br label %25

25:                                               ; preds = %23, %21
  %.pn = phi { ptr, i32 } [ %24, %23 ], [ %22, %21 ]
  call void @_ZNSaIcED1Ev(ptr noundef nonnull align 1 dereferenceable(1) %5) #15
  br label %78

26:                                               ; preds = %13
  %27 = invoke noundef i32 @_ZNK2cv11_InputArray4kindEv(ptr noundef nonnull align 8 dereferenceable(24) %0)
          to label %.noexc unwind label %16

.noexc:                                           ; preds = %26
  %28 = icmp eq i32 %27, 65536
  br i1 %28, label %29, label %32

29:                                               ; preds = %.noexc
  %30 = getelementptr inbounds i8, ptr %0, i64 8
  %31 = load ptr, ptr %30, align 8, !noalias !10
  invoke void @_ZN2cv3MatC1ERKS0_(ptr noundef nonnull align 8 dereferenceable(96) %6, ptr noundef nonnull align 8 dereferenceable(96) %31)
          to label %_ZNK2cv11_InputArray6getMatEi.exit unwind label %16

32:                                               ; preds = %.noexc
  invoke void @_ZNK2cv11_InputArray7getMat_Ei(ptr dead_on_unwind nonnull writable sret(%"class.cv::Mat") align 8 %6, ptr noundef nonnull align 8 dereferenceable(24) %0, i32 noundef -1)
          to label %_ZNK2cv11_InputArray6getMatEi.exit unwind label %16

_ZNK2cv11_InputArray6getMatEi.exit:               ; preds = %29, %32
  %33 = load i32, ptr %6, align 8
  call void @llvm.lifetime.start.p0(i64 16, ptr nonnull %2)
  invoke void @_ZN2cv5utils5trace7details6RegionC1ERKNS3_21LocationStaticStorageE(ptr noundef nonnull align 8 dereferenceable(12) %2, ptr noundef nonnull align 8 dereferenceable(32) @_ZZN2cvL18getCountNonZeroTabEiE24__cv_trace_location_fn17)
          to label %.noexc27 unwind label %.loopexit.split-lp

.noexc27:                                         ; preds = %_ZNK2cv11_InputArray6getMatEi.exit
  %34 = and i32 %33, 7
  %35 = zext nneg i32 %34 to i64
  %36 = getelementptr inbounds [8 x ptr], ptr @_ZZN2cv12cpu_baseline18getCountNonZeroTabEiE15countNonZeroTab, i64 0, i64 %35
  %37 = load ptr, ptr %36, align 8
  %38 = getelementptr inbounds i8, ptr %2, i64 8
  %39 = load i32, ptr %38, align 8
  %.not.i.i = icmp eq i32 %39, 0
  br i1 %.not.i.i, label %44, label %40

40:                                               ; preds = %.noexc27
  invoke void @_ZN2cv5utils5trace7details6Region7destroyEv(ptr noundef nonnull align 8 dereferenceable(12) %2)
          to label %44 unwind label %41

41:                                               ; preds = %40
  %42 = landingpad { ptr, i32 }
          catch ptr null
  %43 = extractvalue { ptr, i32 } %42, 0
  call void @__clang_call_terminate(ptr %43) #17
  unreachable

44:                                               ; preds = %40, %.noexc27
  call void @llvm.lifetime.end.p0(i64 16, ptr nonnull %2)
  %.not = icmp eq i32 %34, 7
  br i1 %.not, label %45, label %53

.loopexit:                                        ; preds = %63, %66
  %lpad.loopexit = landingpad { ptr, i32 }
          cleanup
  br label %77

.loopexit.split-lp:                               ; preds = %53, %_ZNK2cv11_InputArray6getMatEi.exit
  %lpad.loopexit.split-lp = landingpad { ptr, i32 }
          cleanup
  br label %77

45:                                               ; preds = %44
  call void @_ZNSaIcEC1Ev(ptr noundef nonnull align 1 dereferenceable(1) %8) #15
  invoke void @_ZNSt7__cxx1112basic_stringIcSt11char_traitsIcESaIcEEC1EPKcRKS3_(ptr noundef nonnull align 8 dereferenceable(32) %7, ptr noundef nonnull @.str.3, ptr noundef nonnull align 1 dereferenceable(1) %8)
          to label %46 unwind label %48

46:                                               ; preds = %45
  invoke void @_ZN2cv5errorEiRKNSt7__cxx1112basic_stringIcSt11char_traitsIcESaIcEEEPKcS9_i(i32 noundef -215, ptr noundef nonnull align 8 dereferenceable(32) %7, ptr noundef nonnull @__func__._ZN2cv12countNonZeroERKNS_11_InputArrayE, ptr noundef nonnull @.str.1, i32 noundef 140) #16
          to label %47 unwind label %50

47:                                               ; preds = %46
  unreachable

48:                                               ; preds = %45
  %49 = landingpad { ptr, i32 }
          cleanup
  br label %52

50:                                               ; preds = %46
  %51 = landingpad { ptr, i32 }
          cleanup
  call void @_ZNSt7__cxx1112basic_stringIcSt11char_traitsIcESaIcEED1Ev(ptr noundef nonnull align 8 dereferenceable(32) %7) #15
  br label %52

52:                                               ; preds = %50, %48
  %.pn20 = phi { ptr, i32 } [ %51, %50 ], [ %49, %48 ]
  call void @_ZNSaIcED1Ev(ptr noundef nonnull align 1 dereferenceable(1) %8) #15
  br label %77

53:                                               ; preds = %44
  store ptr %6, ptr %9, align 16
  %54 = getelementptr inbounds i8, ptr %9, i64 8
  store ptr null, ptr %54, align 8
  store i64 0, ptr %10, align 8
  invoke void @_ZN2cv15NAryMatIteratorC1EPPKNS_3MatEPPhi(ptr noundef nonnull align 8 dereferenceable(64) %11, ptr noundef nonnull %9, ptr noundef nonnull %10, i32 noundef -1)
          to label %55 unwind label %.loopexit.split-lp

55:                                               ; preds = %53
  %56 = getelementptr inbounds i8, ptr %11, i64 40
  %57 = load i64, ptr %56, align 8
  %58 = trunc i64 %57 to i32
  %59 = getelementptr inbounds i8, ptr %11, i64 32
  br label %60

60:                                               ; preds = %66, %55
  %.012 = phi i32 [ 0, %55 ], [ %67, %66 ]
  %.0 = phi i64 [ 0, %55 ], [ %68, %66 ]
  %61 = load i64, ptr %59, align 8
  %62 = icmp ult i64 %.0, %61
  br i1 %62, label %63, label %70

63:                                               ; preds = %60
  %64 = load ptr, ptr %10, align 8
  %65 = invoke noundef i32 %37(ptr noundef %64, i32 noundef %58)
          to label %66 unwind label %.loopexit

66:                                               ; preds = %63
  %67 = add nsw i32 %65, %.012
  %68 = add nuw i64 %.0, 1
  %69 = invoke noundef nonnull align 8 dereferenceable(64) ptr @_ZN2cv15NAryMatIteratorppEv(ptr noundef nonnull align 8 dereferenceable(64) %11)
          to label %60 unwind label %.loopexit, !llvm.loop !13

70:                                               ; preds = %60
  call void @_ZN2cv3MatD1Ev(ptr noundef nonnull align 8 dereferenceable(96) %6) #15
  %71 = getelementptr inbounds i8, ptr %3, i64 8
  %72 = load i32, ptr %71, align 8
  %.not.i = icmp eq i32 %72, 0
  br i1 %.not.i, label %_ZN2cv5utils5trace7details6RegionD2Ev.exit, label %73

73:                                               ; preds = %70
  invoke void @_ZN2cv5utils5trace7details6Region7destroyEv(ptr noundef nonnull align 8 dereferenceable(12) %3)
          to label %_ZN2cv5utils5trace7details6RegionD2Ev.exit unwind label %74

74:                                               ; preds = %73
  %75 = landingpad { ptr, i32 }
          catch ptr null
  %76 = extractvalue { ptr, i32 } %75, 0
  call void @__clang_call_terminate(ptr %76) #17
  unreachable

_ZN2cv5utils5trace7details6RegionD2Ev.exit:       ; preds = %70, %73
  ret i32 %.012

77:                                               ; preds = %.loopexit, %.loopexit.split-lp, %52
  %.pn22 = phi { ptr, i32 } [ %.pn20, %52 ], [ %lpad.loopexit, %.loopexit ], [ %lpad.loopexit.split-lp, %.loopexit.split-lp ]
  call void @_ZN2cv3MatD1Ev(ptr noundef nonnull align 8 dereferenceable(96) %6) #15
  br label %78

78:                                               ; preds = %77, %25, %16
  %.pn22.pn = phi { ptr, i32 } [ %.pn22, %77 ], [ %17, %16 ], [ %.pn, %25 ]
  call void @_ZN2cv5utils5trace7details6RegionD2Ev(ptr noundef nonnull align 8 dereferenceable(12) %3) #15
  resume { ptr, i32 } %.pn22.pn
}